; Function Attrs: nounwind uwtable
define void @Abc_NtkConvertCos(ptr noundef readonly captures(none) %0, ptr noundef readonly captures(none) %1, ptr noundef captures(none) initializes((4, 8)) %2) local_unnamed_addr #2 {
  %4 = getelementptr inbounds nuw i8, ptr %2, i64 4
  store i32 0, ptr %4, align 4
  %5 = getelementptr i8, ptr %1, i64 4
  %.val910 = load i32, ptr %5, align 4
  %6 = icmp sgt i32 %.val910, 0
  br i1 %6, label %.lr.ph, label %.critedge

.lr.ph:                                           ; preds = %3
  %7 = getelementptr i8, ptr %1, i64 8
  %8 = getelementptr i8, ptr %0, i64 64
  %.phi.trans.insert.i = getelementptr inbounds nuw i8, ptr %2, i64 8
  br label %9

9:                                                ; preds = %.lr.ph, %Vec_PtrPush.exit
  %indvars.iv = phi i64 [ 0, %.lr.ph ], [ %indvars.iv.next, %Vec_PtrPush.exit ]
  %.val = load ptr, ptr %7, align 8
  %10 = getelementptr inbounds nuw i32, ptr %.val, i64 %indvars.iv
  %11 = load i32, ptr %10, align 4
  %.val8 = load ptr, ptr %8, align 8
  %12 = getelementptr i8, ptr %.val8, i64 8
  %.val8.val = load ptr, ptr %12, align 8
  %13 = sext i32 %11 to i64
  %14 = getelementptr inbounds ptr, ptr %.val8.val, i64 %13
  %15 = load ptr, ptr %14, align 8
  %16 = load i32, ptr %4, align 4
  %17 = load i32, ptr %2, align 8
  %18 = icmp eq i32 %16, %17
  br i1 %18, label %19, label %.Vec_PtrGrow.exit11_crit_edge.i

.Vec_PtrGrow.exit11_crit_edge.i:                  ; preds = %9
  %.pre.i = load ptr, ptr %.phi.trans.insert.i, align 8
  br label %Vec_PtrPush.exit

19:                                               ; preds = %9
  %20 = icmp slt i32 %16, 16
  br i1 %20, label %21, label %28

21:                                               ; preds = %19
  %22 = load ptr, ptr %.phi.trans.insert.i, align 8
  %.not9.i.i = icmp eq ptr %22, null
  br i1 %.not9.i.i, label %25, label %23

23:                                               ; preds = %21
  %24 = tail call dereferenceable_or_null(128) ptr @realloc(ptr noundef nonnull %22, i64 noundef 128) #24
  br label %Vec_PtrGrow.exit.i

25:                                               ; preds = %21
  %26 = tail call noalias dereferenceable_or_null(128) ptr @malloc(i64 noundef 128) #22
  br label %Vec_PtrGrow.exit.i

Vec_PtrGrow.exit.i:                               ; preds = %25, %23
  %27 = phi ptr [ %24, %23 ], [ %26, %25 ]
  store ptr %27, ptr %.phi.trans.insert.i, align 8
  store i32 16, ptr %2, align 8
  br label %Vec_PtrPush.exit

28:                                               ; preds = %19
  %29 = shl nuw nsw i32 %16, 1
  %30 = load ptr, ptr %.phi.trans.insert.i, align 8
  %.not9.i10.i = icmp eq ptr %30, null
  %31 = zext nneg i32 %29 to i64
  %32 = shl nuw nsw i64 %31, 3
  br i1 %.not9.i10.i, label %35, label %33

33:                                               ; preds = %28
  %34 = tail call ptr @realloc(ptr noundef nonnull %30, i64 noundef %32) #24
  br label %37

35:                                               ; preds = %28
  %36 = tail call noalias ptr @malloc(i64 noundef %32) #22
  br label %37

37:                                               ; preds = %35, %33
  %38 = phi ptr [ %34, %33 ], [ %36, %35 ]
  store ptr %38, ptr %.phi.trans.insert.i, align 8
  store i32 %29, ptr %2, align 8
  br label %Vec_PtrPush.exit

Vec_PtrPush.exit:                                 ; preds = %.Vec_PtrGrow.exit11_crit_edge.i, %Vec_PtrGrow.exit.i, %37
  %39 = phi ptr [ %.pre.i, %.Vec_PtrGrow.exit11_crit_edge.i ], [ %38, %37 ], [ %27, %Vec_PtrGrow.exit.i ]
  %40 = load i32, ptr %4, align 4
  %41 = add nsw i32 %40, 1
  store i32 %41, ptr %4, align 4
  %42 = sext i32 %40 to i64
  %43 = getelementptr inbounds ptr, ptr %39, i64 %42
  store ptr %15, ptr %43, align 8
  %indvars.iv.next = add nuw nsw i64 %indvars.iv, 1
  %.val9 = load i32, ptr %5, align 4
  %44 = sext i32 %.val9 to i64
  %45 = icmp slt i64 %indvars.iv.next, %44
  br i1 %45, label %9, label %.critedge, !llvm.loop !41

.critedge:                                        ; preds = %Vec_PtrPush.exit, %3
  ret void
}